; Function Attrs: mustprogress nounwind uwtable
define hidden void @_ZN2cv10BRISK_ImplD2Ev(ptr noundef nonnull align 8 dereferenceable(96) %0, ptr noundef %1) unnamed_addr #11 align 2 {
  %3 = getelementptr inbounds i8, ptr %0, i64 24
  %4 = load ptr, ptr %3, align 8
  %5 = icmp eq ptr %4, null
  br i1 %5, label %7, label %6

6:                                                ; preds = %2
  tail call void @_ZdaPv(ptr noundef nonnull %4) #24
  br label %7

7:                                                ; preds = %6, %2
  %8 = getelementptr inbounds i8, ptr %0, i64 72
  %9 = load ptr, ptr %8, align 8
  %10 = icmp eq ptr %9, null
  br i1 %10, label %12, label %11

11:                                               ; preds = %7
  tail call void @_ZdaPv(ptr noundef nonnull %9) #24
  br label %12

12:                                               ; preds = %11, %7
  %13 = getelementptr inbounds i8, ptr %0, i64 80
  %14 = load ptr, ptr %13, align 8
  %15 = icmp eq ptr %14, null
  br i1 %15, label %17, label %16

16:                                               ; preds = %12
  tail call void @_ZdaPv(ptr noundef nonnull %14) #24
  br label %17

17:                                               ; preds = %16, %12
  %18 = getelementptr inbounds i8, ptr %0, i64 40
  %19 = load ptr, ptr %18, align 8
  %20 = icmp eq ptr %19, null
  br i1 %20, label %22, label %21

21:                                               ; preds = %17
  tail call void @_ZdaPv(ptr noundef nonnull %19) #24
  br label %22

22:                                               ; preds = %21, %17
  %23 = getelementptr inbounds i8, ptr %0, i64 48
  %24 = load ptr, ptr %23, align 8
  %25 = icmp eq ptr %24, null
  br i1 %25, label %27, label %26

26:                                               ; preds = %22
  tail call void @_ZdaPv(ptr noundef nonnull %24) #24
  br label %27

27:                                               ; preds = %26, %22
  %28 = getelementptr inbounds i8, ptr %1, i64 16
  tail call void @_ZN2cv9Feature2DD2Ev(ptr noundef nonnull align 8 dereferenceable(8) %0, ptr noundef nonnull %28) #22
  ret void
}